; Function Attrs: mustprogress nounwind uwtable
define internal fastcc void @_ZNSt6vectorIN12_GLOBAL__N_15ChunkESaIS1_EED2Ev(ptr noundef nonnull readonly align 8 captures(none) dereferenceable(24) %0) unnamed_addr #6 align 2 personality ptr @__gxx_personality_v0 {
  %2 = load ptr, ptr %0, align 8, !tbaa !248
  %3 = getelementptr inbounds nuw i8, ptr %0, i64 8
  %4 = load ptr, ptr %3, align 8, !tbaa !246
  %.not4.i.i.i = icmp eq ptr %2, %4
  br i1 %.not4.i.i.i, label %_ZSt8_DestroyIPN12_GLOBAL__N_15ChunkES1_EvT_S3_RSaIT0_E.exit, label %.lr.ph.i.i.i

.lr.ph.i.i.i:                                     ; preds = %1, %_ZSt8_DestroyIN12_GLOBAL__N_15ChunkEEvPT_.exit.i.i.i
  %.05.i.i.i = phi ptr [ %19, %_ZSt8_DestroyIN12_GLOBAL__N_15ChunkEEvPT_.exit.i.i.i ], [ %2, %1 ]
  %.0.val.i.i.i = load i32, ptr %.05.i.i.i, align 4, !tbaa !30
  %5 = load i8, ptr @_ZN5Yosys5RTLIL8IdString17destruct_guard_okE, align 1, !tbaa !32, !range !34, !noundef !35
  %6 = trunc nuw i8 %5 to i1
  %7 = icmp ne i32 %.0.val.i.i.i, 0
  %or.cond.i.i.i.i.i.i.i = and i1 %7, %6
  br i1 %or.cond.i.i.i.i.i.i.i, label %8, label %_ZSt8_DestroyIN12_GLOBAL__N_15ChunkEEvPT_.exit.i.i.i

8:                                                ; preds = %.lr.ph.i.i.i
  %9 = sext i32 %.0.val.i.i.i to i64
  %10 = load ptr, ptr @_ZN5Yosys5RTLIL8IdString24global_refcount_storage_E, align 8, !tbaa !25
  %11 = getelementptr inbounds nuw i32, ptr %10, i64 %9
  %12 = load i32, ptr %11, align 4, !tbaa !28
  %13 = add nsw i32 %12, -1
  store i32 %13, ptr %11, align 4, !tbaa !28
  %14 = icmp sgt i32 %12, 1
  br i1 %14, label %_ZSt8_DestroyIN12_GLOBAL__N_15ChunkEEvPT_.exit.i.i.i, label %15

15:                                               ; preds = %8
  invoke void @_ZN5Yosys5RTLIL8IdString14free_referenceEi(i32 noundef %.0.val.i.i.i)
          to label %_ZSt8_DestroyIN12_GLOBAL__N_15ChunkEEvPT_.exit.i.i.i unwind label %16

16:                                               ; preds = %15
  %17 = landingpad { ptr, i32 }
          catch ptr null
  %18 = extractvalue { ptr, i32 } %17, 0
  tail call void @__clang_call_terminate(ptr %18) #31
  unreachable

_ZSt8_DestroyIN12_GLOBAL__N_15ChunkEEvPT_.exit.i.i.i: ; preds = %15, %8, %.lr.ph.i.i.i
  %19 = getelementptr inbounds nuw i8, ptr %.05.i.i.i, i64 12
  %.not.i.i.i = icmp eq ptr %19, %4
  br i1 %.not.i.i.i, label %_ZSt8_DestroyIPN12_GLOBAL__N_15ChunkES1_EvT_S3_RSaIT0_E.exitthread-pre-split, label %.lr.ph.i.i.i, !llvm.loop !186

_ZSt8_DestroyIPN12_GLOBAL__N_15ChunkES1_EvT_S3_RSaIT0_E.exitthread-pre-split: ; preds = %_ZSt8_DestroyIN12_GLOBAL__N_15ChunkEEvPT_.exit.i.i.i
  %.val.pr = load ptr, ptr %0, align 8, !tbaa !248
  br label %_ZSt8_DestroyIPN12_GLOBAL__N_15ChunkES1_EvT_S3_RSaIT0_E.exit

_ZSt8_DestroyIPN12_GLOBAL__N_15ChunkES1_EvT_S3_RSaIT0_E.exit: ; preds = %_ZSt8_DestroyIPN12_GLOBAL__N_15ChunkES1_EvT_S3_RSaIT0_E.exitthread-pre-split, %1
  %.val = phi ptr [ %.val.pr, %_ZSt8_DestroyIPN12_GLOBAL__N_15ChunkES1_EvT_S3_RSaIT0_E.exitthread-pre-split ], [ %2, %1 ]
  %.not.i.i = icmp eq ptr %.val, null
  br i1 %.not.i.i, label %_ZNSt12_Vector_baseIN12_GLOBAL__N_15ChunkESaIS1_EED2Ev.exit, label %20

20:                                               ; preds = %_ZSt8_DestroyIPN12_GLOBAL__N_15ChunkES1_EvT_S3_RSaIT0_E.exit
  %21 = getelementptr inbounds nuw i8, ptr %0, i64 16
  %.val1 = load ptr, ptr %21, align 8, !tbaa !187
  %22 = ptrtoint ptr %.val1 to i64
  %23 = ptrtoint ptr %.val to i64
  %24 = sub i64 %22, %23
  tail call void @_ZdlPvm(ptr noundef nonnull %.val, i64 noundef %24) #30
  br label %_ZNSt12_Vector_baseIN12_GLOBAL__N_15ChunkESaIS1_EED2Ev.exit

_ZNSt12_Vector_baseIN12_GLOBAL__N_15ChunkESaIS1_EED2Ev.exit: ; preds = %_ZSt8_DestroyIPN12_GLOBAL__N_15ChunkES1_EvT_S3_RSaIT0_E.exit, %20
  ret void
}